target datalayout = "e-m:e-p270:32:32-p271:32:32-p272:64:64-i64:64-i128:128-f80:128-n8:16:32:64-S128"
target triple = "x86_64-unknown-linux-gnu"

%"class.std::function" = type { %"class.std::_Function_base", ptr }
%"class.std::_Function_base" = type { %"union.std::_Any_data", ptr }
%"union.std::_Any_data" = type { %"union.std::_Nocopy_types" }
%"union.std::_Nocopy_types" = type { { i64, i64 } }

@_ZN8QuantLib7MINPACK6MACHEPE = global double 1.200000e-16, align 8
@_ZZN8QuantLib7MINPACK6fdjac2EiiPdPKdS1_iPidS1_RKSt8functionIFviiS1_S1_S4_EEE4zero = internal global double 0.000000e+00, align 8

; Function Attrs: mustprogress nounwind uwtable
define linkonce_odr noundef zeroext i1 @_ZNKSt14_Function_base8_M_emptyEv(ptr noundef nonnull align 8 dereferenceable(24) %this) #0 comdat align 2 {
entry:
  %this.addr = alloca ptr, align 8
  store ptr %this, ptr %this.addr, align 8, !tbaa !7
  %this1 = load ptr, ptr %this.addr, align 8
  %_M_manager = getelementptr inbounds nuw %"class.std::_Function_base", ptr %this1, i32 0, i32 1
  %0 = load ptr, ptr %_M_manager, align 8, !tbaa !66
  %tobool = icmp ne ptr %0, null
  %lnot = xor i1 %tobool, true
  ret i1 %lnot
}

; Function Attrs: mustprogress uwtable
define linkonce_odr void @_ZNKSt8functionIFviiPdS0_PiEEclEiiS0_S0_S1_(ptr noundef nonnull align 8 dereferenceable(32) %this, i32 noundef %__args, i32 noundef %__args1, ptr noundef %__args3, ptr noundef %__args5, ptr noundef %__args7) #4 comdat align 2 {
entry:
  %this.addr = alloca ptr, align 8
  %__args.addr = alloca i32, align 4
  %__args.addr2 = alloca i32, align 4
  %__args.addr4 = alloca ptr, align 8
  %__args.addr6 = alloca ptr, align 8
  %__args.addr8 = alloca ptr, align 8
  store ptr %this, ptr %this.addr, align 8, !tbaa !7
  store i32 %__args, ptr %__args.addr, align 4, !tbaa !3
  store i32 %__args1, ptr %__args.addr2, align 4, !tbaa !3
  store ptr %__args3, ptr %__args.addr4, align 8, !tbaa !7
  store ptr %__args5, ptr %__args.addr6, align 8, !tbaa !7
  store ptr %__args7, ptr %__args.addr8, align 8, !tbaa !7
  %this9 = load ptr, ptr %this.addr, align 8
  %call = call noundef zeroext i1 @_ZNKSt14_Function_base8_M_emptyEv(ptr noundef nonnull align 8 dereferenceable(24) %this9)
  br i1 %call, label %if.then, label %if.end

if.then:                                          ; preds = %entry
  call void @_ZSt25__throw_bad_function_callv() #7
  unreachable

if.end:                                           ; preds = %entry
  %_M_invoker = getelementptr inbounds nuw %"class.std::function", ptr %this9, i32 0, i32 1
  %0 = load ptr, ptr %_M_invoker, align 8, !tbaa !15
  %_M_functor = getelementptr inbounds nuw %"class.std::_Function_base", ptr %this9, i32 0, i32 0
  call void %0(ptr noundef nonnull align 8 dereferenceable(16) %_M_functor, ptr noundef nonnull align 4 dereferenceable(4) %__args.addr, ptr noundef nonnull align 4 dereferenceable(4) %__args.addr2, ptr noundef nonnull align 8 dereferenceable(8) %__args.addr4, ptr noundef nonnull align 8 dereferenceable(8) %__args.addr6, ptr noundef nonnull align 8 dereferenceable(8) %__args.addr8)
  ret void
}

; Function Attrs: mustprogress nounwind uwtable
define noundef double @_ZN8QuantLib7MINPACK5dmax1Edd(double noundef %a, double noundef %b) #0 {
entry:
  %retval = alloca double, align 8
  %a.addr = alloca double, align 8
  %b.addr = alloca double, align 8
  store double %a, ptr %a.addr, align 8, !tbaa !9
  store double %b, ptr %b.addr, align 8, !tbaa !9
  %0 = load double, ptr %a.addr, align 8, !tbaa !9
  %1 = load double, ptr %b.addr, align 8, !tbaa !9
  %cmp = fcmp oge double %0, %1
  br i1 %cmp, label %if.then, label %if.else

if.then:                                          ; preds = %entry
  %2 = load double, ptr %a.addr, align 8, !tbaa !9
  store double %2, ptr %retval, align 8
  br label %return

if.else:                                          ; preds = %entry
  %3 = load double, ptr %b.addr, align 8, !tbaa !9
  store double %3, ptr %retval, align 8
  br label %return

return:                                           ; preds = %if.else, %if.then
  %4 = load double, ptr %retval, align 8
  ret double %4
}

; Function Attrs: mustprogress uwtable
define void @_ZN8QuantLib7MINPACK6fdjac2EiiPdPKdS1_iPidS1_RKSt8functionIFviiS1_S1_S4_EE(i32 noundef %m, i32 noundef %n, ptr noundef %x, ptr noundef %fvec, ptr noundef %fjac, i32 noundef %0, ptr noundef %iflag, double noundef %epsfcn, ptr noundef %wa, ptr noundef nonnull align 8 dereferenceable(32) %fcn) #4 {
entry:
  %m.addr = alloca i32, align 4
  %n.addr = alloca i32, align 4
  %x.addr = alloca ptr, align 8
  %fvec.addr = alloca ptr, align 8
  %fjac.addr = alloca ptr, align 8
  %.addr = alloca i32, align 4
  %iflag.addr = alloca ptr, align 8
  %epsfcn.addr = alloca double, align 8
  %wa.addr = alloca ptr, align 8
  %fcn.addr = alloca ptr, align 8
  %i = alloca i32, align 4
  %j = alloca i32, align 4
  %ij = alloca i32, align 4
  %eps = alloca double, align 8
  %h = alloca double, align 8
  %temp = alloca double, align 8
  %cleanup.dest.slot = alloca i32, align 4
  store i32 %m, ptr %m.addr, align 4, !tbaa !3
  store i32 %n, ptr %n.addr, align 4, !tbaa !3
  store ptr %x, ptr %x.addr, align 8, !tbaa !7
  store ptr %fvec, ptr %fvec.addr, align 8, !tbaa !7
  store ptr %fjac, ptr %fjac.addr, align 8, !tbaa !7
  store i32 %0, ptr %.addr, align 4, !tbaa !3
  store ptr %iflag, ptr %iflag.addr, align 8, !tbaa !7
  store double %epsfcn, ptr %epsfcn.addr, align 8, !tbaa !9
  store ptr %wa, ptr %wa.addr, align 8, !tbaa !7
  store ptr %fcn, ptr %fcn.addr, align 8, !tbaa !7
  call void @llvm.lifetime.start.p0(i64 4, ptr %i) #6
  call void @llvm.lifetime.start.p0(i64 4, ptr %j) #6
  call void @llvm.lifetime.start.p0(i64 4, ptr %ij) #6
  call void @llvm.lifetime.start.p0(i64 8, ptr %eps) #6
  call void @llvm.lifetime.start.p0(i64 8, ptr %h) #6
  call void @llvm.lifetime.start.p0(i64 8, ptr %temp) #6
  %1 = load double, ptr %epsfcn.addr, align 8, !tbaa !9
  %2 = load double, ptr @_ZN8QuantLib7MINPACK6MACHEPE, align 8, !tbaa !9
  %call = call noundef double @_ZN8QuantLib7MINPACK5dmax1Edd(double noundef %1, double noundef %2)
  store double %call, ptr %temp, align 8, !tbaa !9
  %3 = load double, ptr %temp, align 8, !tbaa !9
  %call1 = call double @sqrt(double noundef %3) #6, !tbaa !3
  store double %call1, ptr %eps, align 8, !tbaa !9
  store i32 0, ptr %ij, align 4, !tbaa !3
  store i32 0, ptr %j, align 4, !tbaa !3
  br label %for.cond

for.cond:                                         ; preds = %for.inc20, %entry
  %4 = load i32, ptr %j, align 4, !tbaa !3
  %5 = load i32, ptr %n.addr, align 4, !tbaa !3
  %cmp = icmp slt i32 %4, %5
  br i1 %cmp, label %for.body, label %for.end22

for.body:                                         ; preds = %for.cond
  %6 = load ptr, ptr %x.addr, align 8, !tbaa !7
  %7 = load i32, ptr %j, align 4, !tbaa !3
  %idxprom = sext i32 %7 to i64
  %arrayidx = getelementptr inbounds double, ptr %6, i64 %idxprom
  %8 = load double, ptr %arrayidx, align 8, !tbaa !9
  store double %8, ptr %temp, align 8, !tbaa !9
  %9 = load double, ptr %eps, align 8, !tbaa !9
  %10 = load double, ptr %temp, align 8, !tbaa !9
  %11 = call double @llvm.fabs.f64(double %10)
  %mul = fmul double %9, %11
  store double %mul, ptr %h, align 8, !tbaa !9
  %12 = load double, ptr %h, align 8, !tbaa !9
  %13 = load double, ptr @_ZZN8QuantLib7MINPACK6fdjac2EiiPdPKdS1_iPidS1_RKSt8functionIFviiS1_S1_S4_EEE4zero, align 8, !tbaa !9
  %cmp2 = fcmp oeq double %12, %13
  br i1 %cmp2, label %if.then, label %if.end

if.then:                                          ; preds = %for.body
  %14 = load double, ptr %eps, align 8, !tbaa !9
  store double %14, ptr %h, align 8, !tbaa !9
  br label %if.end

if.end:                                           ; preds = %if.then, %for.body
  %15 = load double, ptr %temp, align 8, !tbaa !9
  %16 = load double, ptr %h, align 8, !tbaa !9
  %add = fadd double %15, %16
  %17 = load ptr, ptr %x.addr, align 8, !tbaa !7
  %18 = load i32, ptr %j, align 4, !tbaa !3
  %idxprom3 = sext i32 %18 to i64
  %arrayidx4 = getelementptr inbounds double, ptr %17, i64 %idxprom3
  store double %add, ptr %arrayidx4, align 8, !tbaa !9
  %19 = load ptr, ptr %fcn.addr, align 8, !tbaa !7
  %20 = load i32, ptr %m.addr, align 4, !tbaa !3
  %21 = load i32, ptr %n.addr, align 4, !tbaa !3
  %22 = load ptr, ptr %x.addr, align 8, !tbaa !7
  %23 = load ptr, ptr %wa.addr, align 8, !tbaa !7
  %24 = load ptr, ptr %iflag.addr, align 8, !tbaa !7
  call void @_ZNKSt8functionIFviiPdS0_PiEEclEiiS0_S0_S1_(ptr noundef nonnull align 8 dereferenceable(32) %19, i32 noundef %20, i32 noundef %21, ptr noundef %22, ptr noundef %23, ptr noundef %24)
  %25 = load ptr, ptr %iflag.addr, align 8, !tbaa !7
  %26 = load i32, ptr %25, align 4, !tbaa !3
  %cmp5 = icmp slt i32 %26, 0
  br i1 %cmp5, label %if.then6, label %if.end7

if.then6:                                         ; preds = %if.end
  store i32 1, ptr %cleanup.dest.slot, align 4
  br label %cleanup

if.end7:                                          ; preds = %if.end
  %27 = load double, ptr %temp, align 8, !tbaa !9
  %28 = load ptr, ptr %x.addr, align 8, !tbaa !7
  %29 = load i32, ptr %j, align 4, !tbaa !3
  %idxprom8 = sext i32 %29 to i64
  %arrayidx9 = getelementptr inbounds double, ptr %28, i64 %idxprom8
  store double %27, ptr %arrayidx9, align 8, !tbaa !9
  store i32 0, ptr %i, align 4, !tbaa !3
  br label %for.cond10

for.cond10:                                       ; preds = %for.inc, %if.end7
  %30 = load i32, ptr %i, align 4, !tbaa !3
  %31 = load i32, ptr %m.addr, align 4, !tbaa !3
  %cmp11 = icmp slt i32 %30, %31
  br i1 %cmp11, label %for.body12, label %for.end

for.body12:                                       ; preds = %for.cond10
  %32 = load ptr, ptr %wa.addr, align 8, !tbaa !7
  %33 = load i32, ptr %i, align 4, !tbaa !3
  %idxprom13 = sext i32 %33 to i64
  %arrayidx14 = getelementptr inbounds double, ptr %32, i64 %idxprom13
  %34 = load double, ptr %arrayidx14, align 8, !tbaa !9
  %35 = load ptr, ptr %fvec.addr, align 8, !tbaa !7
  %36 = load i32, ptr %i, align 4, !tbaa !3
  %idxprom15 = sext i32 %36 to i64
  %arrayidx16 = getelementptr inbounds double, ptr %35, i64 %idxprom15
  %37 = load double, ptr %arrayidx16, align 8, !tbaa !9
  %sub = fsub double %34, %37
  %38 = load double, ptr %h, align 8, !tbaa !9
  %div = fdiv double %sub, %38
  %39 = load ptr, ptr %fjac.addr, align 8, !tbaa !7
  %40 = load i32, ptr %ij, align 4, !tbaa !3
  %idxprom17 = sext i32 %40 to i64
  %arrayidx18 = getelementptr inbounds double, ptr %39, i64 %idxprom17
  store double %div, ptr %arrayidx18, align 8, !tbaa !9
  %41 = load i32, ptr %ij, align 4, !tbaa !3
  %add19 = add nsw i32 %41, 1
  store i32 %add19, ptr %ij, align 4, !tbaa !3
  br label %for.inc

for.inc:                                          ; preds = %for.body12
  %42 = load i32, ptr %i, align 4, !tbaa !3
  %inc = add nsw i32 %42, 1
  store i32 %inc, ptr %i, align 4, !tbaa !3
  br label %for.cond10, !llvm.loop !13

for.end:                                          ; preds = %for.cond10
  br label %for.inc20

for.inc20:                                        ; preds = %for.end
  %43 = load i32, ptr %j, align 4, !tbaa !3
  %inc21 = add nsw i32 %43, 1
  store i32 %inc21, ptr %j, align 4, !tbaa !3
  br label %for.cond, !llvm.loop !14

for.end22:                                        ; preds = %for.cond
  store i32 0, ptr %cleanup.dest.slot, align 4
  br label %cleanup

cleanup:                                          ; preds = %for.end22, %if.then6
  call void @llvm.lifetime.end.p0(i64 8, ptr %temp) #6
  call void @llvm.lifetime.end.p0(i64 8, ptr %h) #6
  call void @llvm.lifetime.end.p0(i64 8, ptr %eps) #6
  call void @llvm.lifetime.end.p0(i64 4, ptr %ij) #6
  call void @llvm.lifetime.end.p0(i64 4, ptr %j) #6
  call void @llvm.lifetime.end.p0(i64 4, ptr %i) #6
  %cleanup.dest = load i32, ptr %cleanup.dest.slot, align 4
  switch i32 %cleanup.dest, label %unreachable [
    i32 0, label %cleanup.cont
    i32 1, label %cleanup.cont
  ]

cleanup.cont:                                     ; preds = %cleanup, %cleanup
  ret void

unreachable:                                      ; preds = %cleanup
  unreachable
}