; Function Attrs: mustprogress uwtable
define void @_ZN8QuantLib7MINPACK6fdjac2EiiPdPKdS1_iPidS1_RKSt8functionIFviiS1_S1_S4_EE(i32 noundef %m, i32 noundef %n, ptr noundef %x, ptr nocapture noundef readonly %fvec, ptr nocapture noundef writeonly %fjac, i32 %0, ptr noundef %iflag, double noundef %epsfcn, ptr noundef %wa, ptr noundef nonnull align 8 dereferenceable(32) %fcn) local_unnamed_addr #5 {
entry:
  %__args.addr.i = alloca i32, align 4
  %__args.addr2.i = alloca i32, align 4
  %__args.addr4.i = alloca ptr, align 8
  %__args.addr6.i = alloca ptr, align 8
  %__args.addr8.i = alloca ptr, align 8
  %1 = load double, ptr @_ZN8QuantLib7MINPACK6MACHEPE, align 8, !tbaa !3
  %cmp.inv.i = fcmp oge double %epsfcn, %1
  %b.a.i = select i1 %cmp.inv.i, double %epsfcn, double %1
  %call1 = tail call double @sqrt(double noundef %b.a.i) #10, !tbaa !9
  %cmp25 = icmp sgt i32 %n, 0
  br i1 %cmp25, label %for.body.lr.ph, label %cleanup

for.body.lr.ph:                                   ; preds = %entry
  %_M_manager.i.i = getelementptr inbounds nuw i8, ptr %fcn, i64 16
  %_M_invoker.i = getelementptr inbounds nuw i8, ptr %fcn, i64 24
  %cmp1122 = icmp sgt i32 %m, 0
  %wide.trip.count43 = zext nneg i32 %n to i64
  br i1 %cmp1122, label %for.body.us.preheader, label %for.body

for.body.us.preheader:                            ; preds = %for.body.lr.ph
  %wide.trip.count38 = zext nneg i32 %m to i64
  br label %for.body.us

for.body.us:                                      ; preds = %for.body.us.preheader, %for.cond10.for.inc20_crit_edge.us
  %indvars.iv40 = phi i64 [ 0, %for.body.us.preheader ], [ %indvars.iv.next41, %for.cond10.for.inc20_crit_edge.us ]
  %ij.027.us = phi i64 [ 0, %for.body.us.preheader ], [ %indvars.iv.next34, %for.cond10.for.inc20_crit_edge.us ]
  %arrayidx.us = getelementptr inbounds double, ptr %x, i64 %indvars.iv40
  %2 = load double, ptr %arrayidx.us, align 8, !tbaa !3
  %3 = call double @llvm.fabs.f64(double %2)
  %mul.us = fmul double %call1, %3
  %cmp2.us = fcmp oeq double %mul.us, 0.000000e+00
  %h.0.us = select i1 %cmp2.us, double %call1, double %mul.us
  %add.us = fadd double %2, %h.0.us
  store double %add.us, ptr %arrayidx.us, align 8, !tbaa !3
  call void @llvm.lifetime.start.p0(i64 4, ptr nonnull %__args.addr.i)
  call void @llvm.lifetime.start.p0(i64 4, ptr nonnull %__args.addr2.i)
  call void @llvm.lifetime.start.p0(i64 8, ptr nonnull %__args.addr4.i)
  call void @llvm.lifetime.start.p0(i64 8, ptr nonnull %__args.addr6.i)
  call void @llvm.lifetime.start.p0(i64 8, ptr nonnull %__args.addr8.i)
  store i32 %m, ptr %__args.addr.i, align 4, !tbaa !9
  store i32 %n, ptr %__args.addr2.i, align 4, !tbaa !9
  store ptr %x, ptr %__args.addr4.i, align 8, !tbaa !11
  store ptr %wa, ptr %__args.addr6.i, align 8, !tbaa !11
  store ptr %iflag, ptr %__args.addr8.i, align 8, !tbaa !11
  %4 = load ptr, ptr %_M_manager.i.i, align 8, !tbaa !13
  %tobool.not.i.i.us = icmp eq ptr %4, null
  br i1 %tobool.not.i.i.us, label %if.then.i, label %_ZNKSt8functionIFviiPdS0_PiEEclEiiS0_S0_S1_.exit.us

_ZNKSt8functionIFviiPdS0_PiEEclEiiS0_S0_S1_.exit.us: ; preds = %for.body.us
  %5 = load ptr, ptr %_M_invoker.i, align 8, !tbaa !15
  call void %5(ptr noundef nonnull align 8 dereferenceable(16) %fcn, ptr noundef nonnull align 4 dereferenceable(4) %__args.addr.i, ptr noundef nonnull align 4 dereferenceable(4) %__args.addr2.i, ptr noundef nonnull align 8 dereferenceable(8) %__args.addr4.i, ptr noundef nonnull align 8 dereferenceable(8) %__args.addr6.i, ptr noundef nonnull align 8 dereferenceable(8) %__args.addr8.i)
  call void @llvm.lifetime.end.p0(i64 4, ptr nonnull %__args.addr.i)
  call void @llvm.lifetime.end.p0(i64 4, ptr nonnull %__args.addr2.i)
  call void @llvm.lifetime.end.p0(i64 8, ptr nonnull %__args.addr4.i)
  call void @llvm.lifetime.end.p0(i64 8, ptr nonnull %__args.addr6.i)
  call void @llvm.lifetime.end.p0(i64 8, ptr nonnull %__args.addr8.i)
  %6 = load i32, ptr %iflag, align 4, !tbaa !9
  %cmp5.us = icmp slt i32 %6, 0
  br i1 %cmp5.us, label %cleanup, label %if.end7.us

if.end7.us:                                       ; preds = %_ZNKSt8functionIFviiPdS0_PiEEclEiiS0_S0_S1_.exit.us
  store double %2, ptr %arrayidx.us, align 8, !tbaa !3
  %sext = shl i64 %ij.027.us, 32
  %7 = ashr exact i64 %sext, 32
  br label %for.body12.us

for.body12.us:                                    ; preds = %if.end7.us, %for.body12.us
  %indvars.iv33 = phi i64 [ %7, %if.end7.us ], [ %indvars.iv.next34, %for.body12.us ]
  %indvars.iv31 = phi i64 [ 0, %if.end7.us ], [ %indvars.iv.next32, %for.body12.us ]
  %arrayidx14.us = getelementptr inbounds double, ptr %wa, i64 %indvars.iv31
  %8 = load double, ptr %arrayidx14.us, align 8, !tbaa !3
  %arrayidx16.us = getelementptr inbounds double, ptr %fvec, i64 %indvars.iv31
  %9 = load double, ptr %arrayidx16.us, align 8, !tbaa !3
  %sub.us = fsub double %8, %9
  %div.us = fdiv double %sub.us, %h.0.us
  %arrayidx18.us = getelementptr inbounds double, ptr %fjac, i64 %indvars.iv33
  store double %div.us, ptr %arrayidx18.us, align 8, !tbaa !3
  %indvars.iv.next34 = add nsw i64 %indvars.iv33, 1
  %indvars.iv.next32 = add nuw nsw i64 %indvars.iv31, 1
  %exitcond39.not = icmp eq i64 %indvars.iv.next32, %wide.trip.count38
  br i1 %exitcond39.not, label %for.cond10.for.inc20_crit_edge.us, label %for.body12.us, !llvm.loop !17

for.cond10.for.inc20_crit_edge.us:                ; preds = %for.body12.us
  %indvars.iv.next41 = add nuw nsw i64 %indvars.iv40, 1
  %exitcond44.not = icmp eq i64 %indvars.iv.next41, %wide.trip.count43
  br i1 %exitcond44.not, label %cleanup, label %for.body.us, !llvm.loop !18

for.body:                                         ; preds = %for.body.lr.ph, %if.end7
  %indvars.iv = phi i64 [ %indvars.iv.next, %if.end7 ], [ 0, %for.body.lr.ph ]
  %arrayidx = getelementptr inbounds double, ptr %x, i64 %indvars.iv
  %10 = load double, ptr %arrayidx, align 8, !tbaa !3
  %11 = call double @llvm.fabs.f64(double %10)
  %mul = fmul double %call1, %11
  %cmp2 = fcmp oeq double %mul, 0.000000e+00
  %h.0 = select i1 %cmp2, double %call1, double %mul
  %add = fadd double %10, %h.0
  store double %add, ptr %arrayidx, align 8, !tbaa !3
  call void @llvm.lifetime.start.p0(i64 4, ptr nonnull %__args.addr.i)
  call void @llvm.lifetime.start.p0(i64 4, ptr nonnull %__args.addr2.i)
  call void @llvm.lifetime.start.p0(i64 8, ptr nonnull %__args.addr4.i)
  call void @llvm.lifetime.start.p0(i64 8, ptr nonnull %__args.addr6.i)
  call void @llvm.lifetime.start.p0(i64 8, ptr nonnull %__args.addr8.i)
  store i32 %m, ptr %__args.addr.i, align 4, !tbaa !9
  store i32 %n, ptr %__args.addr2.i, align 4, !tbaa !9
  store ptr %x, ptr %__args.addr4.i, align 8, !tbaa !11
  store ptr %wa, ptr %__args.addr6.i, align 8, !tbaa !11
  store ptr %iflag, ptr %__args.addr8.i, align 8, !tbaa !11
  %12 = load ptr, ptr %_M_manager.i.i, align 8, !tbaa !13
  %tobool.not.i.i = icmp eq ptr %12, null
  br i1 %tobool.not.i.i, label %if.then.i, label %_ZNKSt8functionIFviiPdS0_PiEEclEiiS0_S0_S1_.exit

if.then.i:                                        ; preds = %for.body, %for.body.us
  call void @_ZSt25__throw_bad_function_callv() #11
  unreachable

_ZNKSt8functionIFviiPdS0_PiEEclEiiS0_S0_S1_.exit: ; preds = %for.body
  %13 = load ptr, ptr %_M_invoker.i, align 8, !tbaa !15
  call void %13(ptr noundef nonnull align 8 dereferenceable(16) %fcn, ptr noundef nonnull align 4 dereferenceable(4) %__args.addr.i, ptr noundef nonnull align 4 dereferenceable(4) %__args.addr2.i, ptr noundef nonnull align 8 dereferenceable(8) %__args.addr4.i, ptr noundef nonnull align 8 dereferenceable(8) %__args.addr6.i, ptr noundef nonnull align 8 dereferenceable(8) %__args.addr8.i)
  call void @llvm.lifetime.end.p0(i64 4, ptr nonnull %__args.addr.i)
  call void @llvm.lifetime.end.p0(i64 4, ptr nonnull %__args.addr2.i)
  call void @llvm.lifetime.end.p0(i64 8, ptr nonnull %__args.addr4.i)
  call void @llvm.lifetime.end.p0(i64 8, ptr nonnull %__args.addr6.i)
  call void @llvm.lifetime.end.p0(i64 8, ptr nonnull %__args.addr8.i)
  %14 = load i32, ptr %iflag, align 4, !tbaa !9
  %cmp5 = icmp slt i32 %14, 0
  br i1 %cmp5, label %cleanup, label %if.end7

if.end7:                                          ; preds = %_ZNKSt8functionIFviiPdS0_PiEEclEiiS0_S0_S1_.exit
  store double %10, ptr %arrayidx, align 8, !tbaa !3
  %indvars.iv.next = add nuw nsw i64 %indvars.iv, 1
  %exitcond.not = icmp eq i64 %indvars.iv.next, %wide.trip.count43
  br i1 %exitcond.not, label %cleanup, label %for.body, !llvm.loop !18

cleanup:                                          ; preds = %_ZNKSt8functionIFviiPdS0_PiEEclEiiS0_S0_S1_.exit, %if.end7, %_ZNKSt8functionIFviiPdS0_PiEEclEiiS0_S0_S1_.exit.us, %for.cond10.for.inc20_crit_edge.us, %entry
  ret void
}